target datalayout = "e-m:e-p270:32:32-p271:32:32-p272:64:64-i64:64-i128:128-f80:128-n8:16:32:64-S128"
target triple = "x86_64-pc-linux-gnu"

%class.ShenandoahGCPauseMark = type { ptr, %class.GCIdMark, %class.SvcGCMarker, %class.IsSTWGCActiveMark, %class.TraceMemoryManagerStats }
%class.GCIdMark = type { i32 }
%class.SvcGCMarker = type { i8, %class.JvmtiGCMarker }
%class.JvmtiGCMarker = type { i8 }
%class.IsSTWGCActiveMark = type { i8 }
%class.TraceMemoryManagerStats = type { ptr, i32, ptr, i8, i8, i8, i8, i8, i8, i8, i8 }
%class.VM_ShenandoahOperation = type <{ %class.VM_Operation, i32, [4 x i8] }>
%class.VM_Operation = type { ptr, ptr }
%class.VM_ShenandoahOperation.base = type <{ %class.VM_Operation, i32 }>
%class.VM_ShenandoahFinalMarkStartEvac = type { %class.VM_ShenandoahOperation.base, ptr }

@.str.4 = private unnamed_addr constant [11 x i8] c"Final Mark\00", align 1
@_ZN8Universe14_collectedHeapE = external global ptr, align 8

; Function Attrs: mustprogress nounwind uwtable
define linkonce_odr hidden noundef ptr @_ZN8Universe4heapEv() #1 comdat align 2 {
  %1 = load ptr, ptr @_ZN8Universe14_collectedHeapE, align 8
  ret ptr %1
}

; Function Attrs: mustprogress nounwind uwtable
define linkonce_odr hidden void @_ZN11SvcGCMarkerD2Ev(ptr noundef nonnull align 1 dereferenceable(2) %0) unnamed_addr #1 comdat align 2 {
  %2 = alloca ptr, align 8
  store ptr %0, ptr %2, align 8
  %3 = load ptr, ptr %2, align 8
  call void @_ZN15VM_GC_Operation13notify_gc_endEv()
  %4 = getelementptr inbounds %class.SvcGCMarker, ptr %3, i32 0, i32 1
  call void @_ZN13JvmtiGCMarkerD1Ev(ptr noundef nonnull align 1 dereferenceable(1) %4) #5
  ret void
}

; Function Attrs: mustprogress nounwind uwtable
define linkonce_odr hidden noundef ptr @_ZN13CollectedHeap10named_heapI14ShenandoahHeapEEPT_NS_4NameE(i32 noundef %0) #1 comdat align 2 {
  %2 = alloca i32, align 4
  %3 = alloca ptr, align 8
  store i32 %0, ptr %2, align 4
  %4 = call noundef ptr @_ZN8Universe4heapEv()
  store ptr %4, ptr %3, align 8
  %5 = load ptr, ptr %3, align 8
  ret ptr %5
}

; Function Attrs: mustprogress nounwind uwtable
define linkonce_odr hidden void @_ZN21ShenandoahGCPauseMarkD2Ev(ptr noundef nonnull align 8 dereferenceable(48) %0) unnamed_addr #1 comdat align 2 {
  %2 = alloca ptr, align 8
  store ptr %0, ptr %2, align 8
  %3 = load ptr, ptr %2, align 8
  %4 = getelementptr inbounds %class.ShenandoahGCPauseMark, ptr %3, i32 0, i32 4
  call void @_ZN23TraceMemoryManagerStatsD1Ev(ptr noundef nonnull align 8 dereferenceable(32) %4) #5
  %5 = getelementptr inbounds %class.ShenandoahGCPauseMark, ptr %3, i32 0, i32 3
  call void @_ZN17IsSTWGCActiveMarkD1Ev(ptr noundef nonnull align 1 dereferenceable(1) %5) #5
  %6 = getelementptr inbounds %class.ShenandoahGCPauseMark, ptr %3, i32 0, i32 2
  call void @_ZN11SvcGCMarkerD2Ev(ptr noundef nonnull align 1 dereferenceable(2) %6) #5
  %7 = getelementptr inbounds %class.ShenandoahGCPauseMark, ptr %3, i32 0, i32 1
  call void @_ZN8GCIdMarkD1Ev(ptr noundef nonnull align 4 dereferenceable(4) %7) #5
  ret void
}

; Function Attrs: mustprogress nounwind uwtable
define linkonce_odr hidden noundef ptr @_ZN14ShenandoahHeap4heapEv() #1 comdat align 2 {
  %1 = call noundef ptr @_ZN13CollectedHeap10named_heapI14ShenandoahHeapEEPT_NS_4NameE(i32 noundef 6)
  ret ptr %1
}

; Function Attrs: mustprogress nounwind uwtable
define hidden void @_ZN31VM_ShenandoahFinalMarkStartEvac4doitEv(ptr noundef nonnull align 8 dereferenceable(32) %0) unnamed_addr #1 align 2 {
  %2 = alloca ptr, align 8
  %3 = alloca %class.ShenandoahGCPauseMark, align 8
  store ptr %0, ptr %2, align 8
  %4 = load ptr, ptr %2, align 8
  %5 = getelementptr inbounds %class.VM_ShenandoahOperation, ptr %4, i32 0, i32 1
  %6 = load i32, ptr %5, align 8
  call void @_ZN21ShenandoahGCPauseMarkC1EjPKcN11SvcGCMarker11reason_typeE(ptr noundef nonnull align 8 dereferenceable(48) %3, i32 noundef %6, ptr noundef @.str.4, i32 noundef 2)
  %7 = getelementptr inbounds %class.VM_ShenandoahFinalMarkStartEvac, ptr %4, i32 0, i32 1
  %8 = load ptr, ptr %7, align 8
  call void @_ZN22ShenandoahConcurrentGC16entry_final_markEv(ptr noundef nonnull align 8 dereferenceable(21) %8)
  %9 = call noundef ptr @_ZN14ShenandoahHeap4heapEv()
  call void @_ZN14ShenandoahHeap34propagate_gc_state_to_java_threadsEv(ptr noundef nonnull align 8 dereferenceable(2657) %9)
  call void @_ZN21ShenandoahGCPauseMarkD2Ev(ptr noundef nonnull align 8 dereferenceable(48) %3) #5
  ret void
}